; Function Attrs: mustprogress uwtable
define noundef nonnull align 8 dereferenceable(72) ptr @_ZlsIN12colvarmodule8vector1dIdEEERNS0_13memory_streamES4_RKT_(ptr noundef nonnull returned align 8 dereferenceable(72) %0, ptr noundef nonnull readonly align 8 captures(none) dereferenceable(24) %1) local_unnamed_addr #0 {
  %3 = getelementptr inbounds nuw i8, ptr %1, i64 8
  %4 = load ptr, ptr %3, align 8, !tbaa !29
  %5 = load ptr, ptr %1, align 8, !tbaa !32
  %6 = ptrtoint ptr %4 to i64
  %7 = ptrtoint ptr %5 to i64
  %8 = sub i64 %6, %7
  %9 = ashr exact i64 %8, 3
  %10 = add i64 %8, 8
  %11 = load ptr, ptr %0, align 8, !tbaa !4
  %.not.i.i = icmp eq ptr %11, null
  %12 = getelementptr inbounds nuw i8, ptr %0, i64 16
  %13 = select i1 %.not.i.i, ptr %12, ptr %11
  %14 = getelementptr inbounds nuw i8, ptr %13, i64 8
  %15 = load ptr, ptr %14, align 8, !tbaa !17
  %16 = load ptr, ptr %13, align 8, !tbaa !18
  %17 = ptrtoint ptr %15 to i64
  %18 = ptrtoint ptr %16 to i64
  %19 = sub i64 %17, %18
  %20 = add i64 %10, %19
  %21 = getelementptr inbounds nuw i8, ptr %0, i64 48
  %22 = load i64, ptr %21, align 8, !tbaa !19
  %.not5.i.i = icmp ugt i64 %20, %22
  br i1 %.not5.i.i, label %_ZN12colvarmodule13memory_stream20expand_output_bufferEm.exit.thread.i, label %_ZN12colvarmodule13memory_stream20expand_output_bufferEm.exit.i

_ZN12colvarmodule13memory_stream20expand_output_bufferEm.exit.thread.i: ; preds = %2
  %23 = getelementptr inbounds nuw i8, ptr %0, i64 56
  %24 = load i32, ptr %23, align 8, !tbaa !21
  %25 = or i32 %24, 1
  store i32 %25, ptr %23, align 8, !tbaa !21
  br label %_ZN12colvarmodule13memory_stream12write_vectorIdEEvRKSt6vectorIT_SaIS3_EE.exit

_ZN12colvarmodule13memory_stream20expand_output_bufferEm.exit.i: ; preds = %2
  tail call void @_ZNSt6vectorIhSaIhEE6resizeEm(ptr noundef nonnull align 8 dereferenceable(24) %13, i64 noundef %20)
  %.phi.trans.insert.i.i = getelementptr inbounds nuw i8, ptr %0, i64 56
  %.pre.i.i = load i32, ptr %.phi.trans.insert.i.i, align 8, !tbaa !20
  %26 = icmp eq i32 %.pre.i.i, 0
  br i1 %26, label %27, label %_ZN12colvarmodule13memory_stream12write_vectorIdEEvRKSt6vectorIT_SaIS3_EE.exit

27:                                               ; preds = %_ZN12colvarmodule13memory_stream20expand_output_bufferEm.exit.i
  %28 = load ptr, ptr %0, align 8, !tbaa !4
  %.not.i.i.i = icmp eq ptr %28, null
  %.in.i.i.i = select i1 %.not.i.i.i, ptr %12, ptr %28
  %29 = load ptr, ptr %.in.i.i.i, align 8, !tbaa !18
  %30 = getelementptr inbounds nuw i8, ptr %0, i64 40
  %31 = load i64, ptr %30, align 8, !tbaa !27
  %32 = getelementptr inbounds nuw i8, ptr %29, i64 %31
  store i64 %9, ptr %32, align 1
  %33 = load i64, ptr %30, align 8, !tbaa !27
  %34 = add i64 %33, 8
  store i64 %34, ptr %30, align 8, !tbaa !27
  %35 = load ptr, ptr %0, align 8, !tbaa !4
  %.not.i.i6.i = icmp eq ptr %35, null
  %.in.i.i7.i = select i1 %.not.i.i6.i, ptr %12, ptr %35
  %36 = load ptr, ptr %.in.i.i7.i, align 8, !tbaa !18
  %37 = getelementptr inbounds nuw i8, ptr %36, i64 %34
  %38 = load ptr, ptr %1, align 8, !tbaa !32
  %39 = load ptr, ptr %3, align 8, !tbaa !29
  %40 = ptrtoint ptr %39 to i64
  %41 = ptrtoint ptr %38 to i64
  %42 = sub i64 %40, %41
  tail call void @llvm.memcpy.p0.p0.i64(ptr align 1 %37, ptr align 8 %38, i64 %42, i1 false)
  %43 = load ptr, ptr %3, align 8, !tbaa !29
  %44 = load ptr, ptr %1, align 8, !tbaa !32
  %45 = ptrtoint ptr %43 to i64
  %46 = ptrtoint ptr %44 to i64
  %47 = sub i64 %45, %46
  %48 = load i64, ptr %30, align 8, !tbaa !27
  %49 = add i64 %47, %48
  store i64 %49, ptr %30, align 8, !tbaa !27
  br label %_ZN12colvarmodule13memory_stream12write_vectorIdEEvRKSt6vectorIT_SaIS3_EE.exit

_ZN12colvarmodule13memory_stream12write_vectorIdEEvRKSt6vectorIT_SaIS3_EE.exit: ; preds = %_ZN12colvarmodule13memory_stream20expand_output_bufferEm.exit.thread.i, %_ZN12colvarmodule13memory_stream20expand_output_bufferEm.exit.i, %27
  ret ptr %0
}